Certificate:
    Data:
        Version: 3 (0x2)
        Serial Number: 4096 (0x1000)
    Signature Algorithm: sha256WithRSAEncryption
        Issuer: C=CA, ST=California, O=Pivotal Software Inc., CN=hostname.pivotal.io
        Validity
            Not Before: Nov  7 22:51:16 2017 GMT
            Not After : Nov  8 22:51:16 2029 GMT
        Subject: C=CA, ST=California, O=Pivotal Software Inc., CN=Pivotal Class 1 Intermediate CA
        Subject Public Key Info:
            Public Key Algorithm: rsaEncryption
                Public-Key: (3072 bit)
                Modulus:
                    00:d1:89:af:d6:cc:87:81:a8:f3:8d:c7:0c:05:ac:
                    23:cc:dd:60:ae:4b:f1:14:f9:db:e7:b2:97:94:b9:
                    42:75:91:9a:05:0e:67:55:6e:4a:45:54:99:18:bf:
                    da:ed:20:f0:04:7f:07:e7:ef:27:2d:bc:34:99:5a:
                    a6:33:9b:d2:cb:ed:f2:3a:29:59:a5:46:7e:1b:a7:
                    59:c2:61:94:98:72:4c:dc:cf:01:a4:77:4f:f9:88:
                    4d:0c:df:35:e3:be:36:c7:1e:92:65:07:04:89:62:
                    53:3a:3b:29:67:a3:c5:b4:ec:60:5f:c2:d3:d5:c3:
                    e4:36:1c:19:0d:0b:43:35:f0:3d:4d:ad:0e:f2:76:
                    2b:94:70:21:4b:df:40:a2:4a:a4:99:78:d9:cd:b1:
                    20:5c:be:45:f7:91:32:9f:5e:bb:f7:f7:39:b8:1e:
                    d3:08:2b:2a:1a:fd:8d:65:7d:55:ac:bf:b1:2a:73:
                    e5:d3:d8:2c:cb:0f:13:d5:c2:97:1c:60:27:07:23:
                    74:57:e2:1d:12:c5:b1:45:6f:c2:e2:55:04:c8:f5:
                    a8:a6:b1:0d:67:4a:90:80:2a:aa:61:fd:bf:e8:88:
                    be:89:ad:72:67:0b:a6:79:e4:58:69:f7:9e:ff:ae:
                    35:27:7d:d2:c2:f1:fb:9d:6e:4f:bb:8d:9e:90:bd:
                    ed:df:bd:9c:8c:dc:42:7d:f5:f7:b1:04:10:0c:51:
                    a2:91:f5:c9:a3:2a:dd:9c:28:42:b9:38:76:d7:3f:
                    4a:61:22:c7:83:2e:49:4d:2c:9d:9b:92:f3:6c:15:
                    9f:fe:aa:6e:45:8a:f5:00:67:91:71:a2:cf:9f:51:
                    bb:7f:a8:b3:22:e2:a8:fa:b6:c2:6f:d5:ae:4f:d1:
                    da:85:a8:41:b6:61:8e:dd:44:e0:a7:72:88:6b:2a:
                    ab:3c:a3:1d:29:8e:6c:53:16:4e:46:68:81:36:11:
                    2f:38:99:7a:ce:61:20:cc:75:fc:2d:c1:4e:16:19:
                    0c:cd:5b:67:5a:48:ac:ed:18:4f
                Exponent: 65537 (0x10001)
        X509v3 extensions:
            X509v3 Basic Constraints: 
                CA:FALSE
            Netscape Comment: 
                OpenSSL Generated Certificate
            X509v3 Subject Key Identifier: 
                91:E4:8F:D6:80:34:ED:05:17:C1:2F:3F:AF:F1:A3:8B:B2:5C:79:B4
            X509v3 Authority Key Identifier: 
                DirName:/C=CA/ST=California/O=Pivotal Software Inc./CN=hostname.pivotal.io
                serial:01

    Signature Algorithm: sha256WithRSAEncryption
         1c:82:35:e4:e4:8f:75:e6:e6:6f:4c:f8:17:2b:b7:e9:15:c0:
         4c:f4:1a:b7:67:53:e0:82:59:3a:6e:92:0d:90:a8:85:b5:38:
         dd:cb:2c:70:c2:f9:fc:67:a7:1b:ae:85:60:ea:93:a2:e6:08:
         f9:43:eb:6d:48:a4:9f:54:b5:13:8c:b5:f1:40:45:8a:61:85:
         62:10:48:af:59:6a:52:60:32:c3:37:ba:c1:20:2f:08:d9:a5:
         e2:f3:d7:4b:ac:98:dc:77:3c:09:f6:ac:70:3d:29:88:14:73:
         03:ca:67:75:fa:06:c1:a7:43:23:65:b3:a8:12:87:0d:69:54:
         f6:b5:7f:bf:18:0c:9c:27:53:79:05:52:41:40:69:66:31:87:
         16:3d:32:f5:9b:de:4b:8e:ac:18:f7:f6:ac:07:1a:74:6c:14:
         56:4a:c4:a7:60:13:74:a9:d6:35:0b:17:f2:8c:20:3a:4a:2a:
         86:e3:4d:d3:d4:9b:1f:a5:62:cd:1e:a9:00:87:49:1f:b4:8b:
         3c:a5:6c:50:34:f3:12:ab:77:a1:67:9e:11:32:73:6a:63:e8:
         57:7c:89:04:a1:83:27:30:ef:5d:0a:a0:3e:27:4c:08:ab:f2:
         e3:e4:bc:5a:e5:dd:16:ea:00:7a:23:a4:f1:b2:c9:26:dd:48:
         2f:d6:f1:6d:af:8c:35:f8:31:a7:e8:32:f3:7f:57:58:94:e6:
         e0:43:15:18:b6:42:b6:2e:9a:6f:87:62:25:72:f9:7e:67:04:
         a9:e4:d4:95:75:ca:ea:c8:16:ed:19:fd:aa:59:46:c3:41:20:
         36:b9:eb:8b:16:fe:1c:04:4c:87:af:d3:11:40:08:45:b2:ba:
         1f:f3:4f:03:f5:9f:03:fd:97:28:36:40:37:7a:c8:b1:af:9c:
         cd:ea:ee:24:0a:f7:a6:28:80:61:c2:5f:c9:85:b8:15:06:cf:
         a3:22:df:80:83:c4:4b:4c:6c:ba:6b:8b:35:fc:56:88:dd:6a:
         66:a1:df:a1:1e:b8:49:d4:9e:2d:33:2f:0d:fe:1a:06:52:2f:
         ef:fc:d1:79:78:a3:11:01:fe:65:16:67:5a:3b:4f:f2:2b:42:
         77:ff:61:dc:8a:90:4a:04:ca:9c:2c:a4:ce:91:ed:ed:08:eb:
         11:c5:8a:07:a3:b7:d4:d1:e9:3a:43:4a:51:d9:d3:eb:2c:ae:
         13:eb:11:76:b0:36:f4:78:25:43:a6:5a:ff:dd:b7:f7:70:7a:
         d5:7e:8e:64:b9:a3:8c:73:4d:8b:bb:9f:03:73:a4:8e:a8:dc:
         6c:d2:21:4d:48:d2:90:05:cb:01:d6:38:5d:1f:5e:85:00:66:
         d1:e4:66:82:f1:c1:21:0b
-----BEGIN CERTIFICATE-----
MIIFmDCCA4CgAwIBAgICEAAwDQYJKoZIhvcNAQELBQAwYDELMAkGA1UEBhMCQ0Ex
EzARBgNVBAgMCkNhbGlmb3JuaWExHjAcBgNVBAoMFVBpdm90YWwgU29mdHdhcmUg
SW5jLjEcMBoGA1UEAwwTaG9zdG5hbWUucGl2b3RhbC5pbzAeFw0xNzExMDcyMjUx
MTZaFw0yOTExMDgyMjUxMTZaMGwxCzAJBgNVBAYTAkNBMRMwEQYDVQQIDApDYWxp
Zm9ybmlhMR4wHAYDVQQKDBVQaXZvdGFsIFNvZnR3YXJlIEluYy4xKDAmBgNVBAMM
H1Bpdm90YWwgQ2xhc3MgMSBJbnRlcm1lZGlhdGUgQ0EwggGiMA0GCSqGSIb3DQEB
AQUAA4IBjwAwggGKAoIBgQDRia/WzIeBqPONxwwFrCPM3WCuS/EU+dvnspeUuUJ1
kZoFDmdVbkpFVJkYv9rtIPAEfwfn7yctvDSZWqYzm9LL7fI6KVmlRn4bp1nCYZSY
ckzczwGkd0/5iE0M3zXjvjbHHpJlBwSJYlM6Oylno8W07GBfwtPVw+Q2HBkNC0M1
8D1NrQ7ydiuUcCFL30CiSqSZeNnNsSBcvkX3kTKfXrv39zm4HtMIKyoa/Y1lfVWs
v7Eqc+XT2CzLDxPVwpccYCcHI3RX4h0SxbFFb8LiVQTI9aimsQ1nSpCAKqph/b/o
iL6JrXJnC6Z55Fhp957/rjUnfdLC8fudbk+7jZ6Qve3fvZyM3EJ99fexBBAMUaKR
9cmjKt2cKEK5OHbXP0phIseDLklNLJ2bkvNsFZ/+qm5FivUAZ5Fxos+fUbt/qLMi
4qj6tsJv1a5P0dqFqEG2YY7dROCncohrKqs8ox0pjmxTFk5GaIE2ES84mXrOYSDM
dfwtwU4WGQzNW2daSKztGE8CAwEAAaOBzzCBzDAJBgNVHRMEAjAAMCwGCWCGSAGG
+EIBDQQfFh1PcGVuU1NMIEdlbmVyYXRlZCBDZXJ0aWZpY2F0ZTAdBgNVHQ4EFgQU
keSP1oA07QUXwS8/r/Gji7JcebQwcgYDVR0jBGswaaFkpGIwYDELMAkGA1UEBhMC
Q0ExEzARBgNVBAgMCkNhbGlmb3JuaWExHjAcBgNVBAoMFVBpdm90YWwgU29mdHdh
cmUgSW5jLjEcMBoGA1UEAwwTaG9zdG5hbWUucGl2b3RhbC5pb4IBATANBgkqhkiG
9w0BAQsFAAOCAgEAHII15OSPdebmb0z4Fyu36RXATPQat2dT4IJZOm6SDZCohbU4
3csscML5/GenG66FYOqTouYI+UPrbUikn1S1E4y18UBFimGFYhBIr1lqUmAywze6
wSAvCNml4vPXS6yY3Hc8CfascD0piBRzA8pndfoGwadDI2WzqBKHDWlU9rV/vxgM
nCdTeQVSQUBpZjGHFj0y9ZveS46sGPf2rAcadGwUVkrEp2ATdKnWNQsX8owgOkoq
huNN09SbH6VizR6pAIdJH7SLPKVsUDTzEqt3oWeeETJzamPoV3yJBKGDJzDvXQqg
PidMCKvy4+S8WuXdFuoAeiOk8bLJJt1IL9bxba+MNfgxp+gy839XWJTm4EMVGLZC
ti6ab4diJXL5fmcEqeTUlXXK6sgW7Rn9qllGw0EgNrnrixb+HARMh6/TEUAIRbK6
H/NPA/WfA/2XKDZAN3rIsa+czeruJAr3piiAYcJfyYW4FQbPoyLfgIPES0xsumuL
NfxWiN1qZqHfoR64SdSeLTMvDf4aBlIv7/zReXijEQH+ZRZnWjtP8itCd/9h3IqQ
SgTKnCykzpHt7QjrEcWKB6O31NHpOkNKUdnT6yyuE+sRdrA29HglQ6Za/92393B6
1X6OZLmjjHNNi7ufA3OkjqjcbNIhTUjSkAXLAdY4XR9ehQBm0eRmgvHBIQs=
-----END CERTIFICATE-----
