Certificate:
    Data:
        Version: 3 (0x2)
        Serial Number: 4097 (0x1001)
    Signature Algorithm: sha256WithRSAEncryption
        Issuer: C=CA, ST=California, O=Pivotal Software Inc., CN=hostname.pivotal.io
        Validity
            Not Before: Nov  7 23:15:49 2017 GMT
            Not After : Nov  8 23:15:49 2029 GMT
        Subject: C=CA, ST=California, O=Pivotal Software Inc., CN=Pivotal Class 2 Intermediate CA
        Subject Public Key Info:
            Public Key Algorithm: rsaEncryption
                Public-Key: (3072 bit)
                Modulus:
                    00:d6:36:23:e9:48:41:ad:2a:15:be:c3:6b:13:fd:
                    36:8e:87:85:5b:38:fb:44:f4:74:d2:f9:70:f0:d6:
                    fb:bb:d5:a3:e4:52:2b:76:89:2f:c3:1f:b8:1c:0f:
                    bb:63:c3:0c:9f:84:ca:fa:49:56:f2:91:b8:94:23:
                    2e:b2:1c:2e:e6:8a:dd:f9:96:b4:aa:bf:19:93:75:
                    04:f5:56:05:10:63:73:e9:a6:5c:4f:7f:f7:7a:e5:
                    1b:8e:2d:43:b4:a5:27:86:2f:29:bc:9c:5a:91:36:
                    15:ae:fb:d9:31:f0:ca:e2:85:32:88:10:97:50:aa:
                    97:31:ba:f6:98:6e:f7:21:30:a3:6f:e3:e4:df:ec:
                    20:ea:05:34:a3:7e:f7:59:56:93:e9:01:2b:32:28:
                    b1:ce:d0:96:4b:78:5b:64:f3:68:8d:35:a9:f3:c3:
                    fa:30:74:9c:37:b2:cd:38:7e:9a:f5:8d:ec:30:41:
                    3d:21:a2:80:54:b0:17:6a:f9:03:9b:27:d0:a7:0b:
                    f5:0e:e2:34:47:b4:f4:d0:fa:82:77:8d:d1:61:67:
                    e8:b8:9d:87:ee:41:fc:96:ba:70:39:f8:9a:77:e0:
                    31:da:5d:a6:d6:73:d1:f3:5a:dc:c9:56:f7:a9:44:
                    b6:d3:16:5a:3c:59:9f:b1:0a:23:e9:7e:43:48:af:
                    f5:b6:16:8f:c4:6d:cf:64:f4:da:1a:0e:93:e5:a6:
                    22:27:f8:c3:b9:17:14:73:6a:72:66:74:e4:24:dc:
                    03:e6:87:48:54:95:ed:b2:e2:1a:2a:0e:62:5c:1f:
                    a2:4c:5f:4c:44:ea:f5:bc:48:7c:af:3a:e6:3a:8c:
                    af:98:8b:78:52:7a:15:a8:7a:d1:9d:37:84:35:b4:
                    01:ec:96:8b:b7:dd:ff:db:71:18:11:ba:71:b2:c2:
                    21:cc:7b:d4:a9:48:22:77:8e:0a:af:9a:d9:5a:89:
                    80:a3:ad:11:2b:65:dc:15:6d:0c:ed:93:76:a6:39:
                    d3:7d:d3:a7:6a:a8:60:40:fa:fd
                Exponent: 65537 (0x10001)
        X509v3 extensions:
            X509v3 Basic Constraints: 
                CA:FALSE
            Netscape Comment: 
                OpenSSL Generated Certificate
            X509v3 Subject Key Identifier: 
                FA:23:E4:63:2F:72:34:C4:9C:A5:DE:59:A8:8F:14:1F:64:A3:85:EE
            X509v3 Authority Key Identifier: 
                DirName:/C=CA/ST=California/O=Pivotal Software Inc./CN=hostname.pivotal.io
                serial:01

    Signature Algorithm: sha256WithRSAEncryption
         93:15:c4:51:0e:4d:31:c4:04:ff:d6:52:83:43:6a:eb:61:0a:
         e4:f6:f8:a7:f8:01:41:df:b3:4b:dd:40:06:30:a5:1f:09:04:
         f9:a3:f5:a3:5f:a7:c8:97:15:05:b5:da:6d:24:76:ad:22:77:
         2a:16:90:6d:ca:2e:8e:26:29:ba:40:62:0d:c9:55:83:48:7a:
         5a:57:c3:34:b2:2a:08:fe:8c:91:b8:84:1b:a5:a2:69:8d:e7:
         0a:af:dc:1e:85:d6:93:b6:ee:ef:03:b6:c0:a8:1a:7c:99:96:
         98:70:6e:f1:98:c3:c3:36:f6:9d:f5:97:4e:11:79:11:e0:a2:
         fd:ab:aa:a0:67:5b:de:27:f8:0b:26:ec:ee:56:2c:8c:aa:8a:
         c4:0b:2c:7c:1a:9f:af:11:6d:82:2b:6b:bd:5f:9d:ff:ec:2d:
         90:18:97:3a:d2:f5:f4:32:c6:b8:3b:ef:33:ba:52:f3:87:ce:
         08:00:fe:a7:4c:ee:49:13:50:ff:fc:67:59:14:62:2c:4f:73:
         65:5a:68:04:90:e0:d8:8e:cf:3b:d8:b7:02:8c:38:60:a5:bd:
         a8:85:74:f7:b7:61:58:d9:8d:ab:3d:0f:fa:00:a6:90:0a:24:
         3d:ee:4f:5b:80:4a:a8:e6:8a:8a:11:9e:3b:96:d8:c4:a6:4c:
         d3:f1:1b:b6:3b:75:4d:6a:18:90:86:2e:d3:c8:ac:d1:c6:f4:
         d0:7d:2f:53:70:18:d5:c1:26:bc:76:f2:fc:05:30:8d:b8:a9:
         ef:df:d7:4c:7e:d4:15:3e:c4:0e:ed:62:6c:80:3e:a0:ad:4c:
         0b:3f:e3:dd:7c:6c:80:39:af:bf:07:5d:31:91:83:63:bc:cd:
         14:6c:c4:4a:73:9e:b6:a0:eb:d0:cf:8b:de:74:a6:d9:87:b3:
         2d:ad:39:7e:25:25:02:16:d9:40:e1:60:f8:94:7d:62:6c:53:
         62:e1:fb:ae:07:21:c3:b3:69:f0:b2:d4:63:f6:52:5c:6d:ea:
         1f:93:78:20:32:39:d7:af:4f:02:e2:85:b1:26:07:9c:a7:60:
         50:ff:76:bf:69:8f:3f:db:6e:e0:9c:f8:95:ce:03:cc:91:f4:
         9f:7e:4b:ef:41:7d:ff:6b:5b:91:22:2f:59:ef:af:bd:a3:6f:
         dd:c5:03:f2:98:50:71:28:b6:96:9d:a3:57:3a:be:84:db:57:
         1a:f8:d7:d7:70:f5:33:86:8e:c4:87:35:37:75:c2:bc:02:f2:
         26:9f:8f:00:0a:b3:5d:3a:0a:db:53:e8:ee:38:fe:98:94:75:
         df:a9:9a:a4:fe:1a:db:fb:a6:01:ed:df:cf:a7:0f:76:d5:07:
         a0:6f:af:91:d6:63:8d:9c
-----BEGIN CERTIFICATE-----
MIIFmDCCA4CgAwIBAgICEAEwDQYJKoZIhvcNAQELBQAwYDELMAkGA1UEBhMCQ0Ex
EzARBgNVBAgMCkNhbGlmb3JuaWExHjAcBgNVBAoMFVBpdm90YWwgU29mdHdhcmUg
SW5jLjEcMBoGA1UEAwwTaG9zdG5hbWUucGl2b3RhbC5pbzAeFw0xNzExMDcyMzE1
NDlaFw0yOTExMDgyMzE1NDlaMGwxCzAJBgNVBAYTAkNBMRMwEQYDVQQIDApDYWxp
Zm9ybmlhMR4wHAYDVQQKDBVQaXZvdGFsIFNvZnR3YXJlIEluYy4xKDAmBgNVBAMM
H1Bpdm90YWwgQ2xhc3MgMiBJbnRlcm1lZGlhdGUgQ0EwggGiMA0GCSqGSIb3DQEB
AQUAA4IBjwAwggGKAoIBgQDWNiPpSEGtKhW+w2sT/TaOh4VbOPtE9HTS+XDw1vu7
1aPkUit2iS/DH7gcD7tjwwyfhMr6SVbykbiUIy6yHC7mit35lrSqvxmTdQT1VgUQ
Y3PpplxPf/d65RuOLUO0pSeGLym8nFqRNhWu+9kx8MrihTKIEJdQqpcxuvaYbvch
MKNv4+Tf7CDqBTSjfvdZVpPpASsyKLHO0JZLeFtk82iNNanzw/owdJw3ss04fpr1
jewwQT0hooBUsBdq+QObJ9CnC/UO4jRHtPTQ+oJ3jdFhZ+i4nYfuQfyWunA5+Jp3
4DHaXabWc9HzWtzJVvepRLbTFlo8WZ+xCiPpfkNIr/W2Fo/Ebc9k9NoaDpPlpiIn
+MO5FxRzanJmdOQk3APmh0hUle2y4hoqDmJcH6JMX0xE6vW8SHyvOuY6jK+Yi3hS
ehWoetGdN4Q1tAHslou33f/bcRgRunGywiHMe9SpSCJ3jgqvmtlaiYCjrRErZdwV
bQztk3amOdN906dqqGBA+v0CAwEAAaOBzzCBzDAJBgNVHRMEAjAAMCwGCWCGSAGG
+EIBDQQfFh1PcGVuU1NMIEdlbmVyYXRlZCBDZXJ0aWZpY2F0ZTAdBgNVHQ4EFgQU
+iPkYy9yNMScpd5ZqI8UH2Sjhe4wcgYDVR0jBGswaaFkpGIwYDELMAkGA1UEBhMC
Q0ExEzARBgNVBAgMCkNhbGlmb3JuaWExHjAcBgNVBAoMFVBpdm90YWwgU29mdHdh
cmUgSW5jLjEcMBoGA1UEAwwTaG9zdG5hbWUucGl2b3RhbC5pb4IBATANBgkqhkiG
9w0BAQsFAAOCAgEAkxXEUQ5NMcQE/9ZSg0Nq62EK5Pb4p/gBQd+zS91ABjClHwkE
+aP1o1+nyJcVBbXabSR2rSJ3KhaQbcoujiYpukBiDclVg0h6WlfDNLIqCP6MkbiE
G6WiaY3nCq/cHoXWk7bu7wO2wKgafJmWmHBu8ZjDwzb2nfWXThF5EeCi/auqoGdb
3if4Cybs7lYsjKqKxAssfBqfrxFtgitrvV+d/+wtkBiXOtL19DLGuDvvM7pS84fO
CAD+p0zuSRNQ//xnWRRiLE9zZVpoBJDg2I7PO9i3Aow4YKW9qIV097dhWNmNqz0P
+gCmkAokPe5PW4BKqOaKihGeO5bYxKZM0/Ebtjt1TWoYkIYu08is0cb00H0vU3AY
1cEmvHby/AUwjbip79/XTH7UFT7EDu1ibIA+oK1MCz/j3XxsgDmvvwddMZGDY7zN
FGzESnOetqDr0M+L3nSm2YezLa05fiUlAhbZQOFg+JR9YmxTYuH7rgchw7Np8LLU
Y/ZSXG3qH5N4IDI5169PAuKFsSYHnKdgUP92v2mPP9tu4Jz4lc4DzJH0n35L70F9
/2tbkSIvWe+vvaNv3cUD8phQcSi2lp2jVzq+hNtXGvjX13D1M4aOxIc1N3XCvALy
Jp+PAAqzXToK21Po7jj+mJR136mapP4a2/umAe3fz6cPdtUHoG+vkdZjjZw=
-----END CERTIFICATE-----
