Certificate:
    Data:
        Version: 3 (0x2)
        Serial Number: 4098 (0x1002)
    Signature Algorithm: sha256WithRSAEncryption
        Issuer: C=CA, ST=California, O=Pivotal Software Inc., CN=hostname.pivotal.io
        Validity
            Not Before: Nov  7 23:19:11 2017 GMT
            Not After : Nov  8 23:19:11 2029 GMT
        Subject: C=CA, ST=California, O=Pivotal Software Inc., CN=Pivotal Class 4 Intermediate CA
        Subject Public Key Info:
            Public Key Algorithm: rsaEncryption
                Public-Key: (4096 bit)
                Modulus:
                    00:da:40:58:94:48:08:4c:66:3a:5a:94:05:ba:90:
                    fa:72:4d:76:d3:68:3c:c9:9f:02:48:f3:8e:e2:bb:
                    55:43:c0:1f:b5:7b:33:29:22:4d:eb:9b:92:f8:41:
                    8f:50:ab:1f:6f:e1:5e:f6:9b:fa:92:4b:64:18:bb:
                    3c:b0:fa:1a:c9:8e:07:2c:ad:00:e8:36:26:00:32:
                    c0:e2:aa:42:36:f2:18:1c:66:f1:3c:45:bb:38:bc:
                    5e:a6:60:9c:1f:d1:61:57:d1:36:e2:ad:29:2e:0d:
                    ab:4d:c4:22:3a:ad:e9:86:21:31:2d:c8:df:65:c1:
                    50:e0:29:96:78:0a:78:77:34:30:8d:10:80:62:84:
                    a5:26:ed:4f:42:cd:cb:c3:00:17:82:63:14:7d:47:
                    a3:5f:e8:61:3c:7a:ed:c2:35:20:95:74:35:02:7e:
                    1d:36:63:97:f6:a3:90:e6:c1:36:14:85:78:66:80:
                    c4:85:4b:70:71:24:60:42:6e:c8:0b:d3:0d:c6:a1:
                    3b:3a:be:4a:25:e5:18:5f:43:2f:51:d5:bf:6c:62:
                    ac:cd:f9:73:e9:1f:2e:1a:33:83:a5:28:6b:56:95:
                    03:31:af:a8:3b:db:53:56:03:ed:50:fe:21:5a:f4:
                    57:a9:57:dc:18:a4:9d:46:b1:c3:e1:44:39:24:d4:
                    74:d8:62:37:5c:94:9c:7d:ca:1e:7a:8d:e3:38:f5:
                    57:de:47:d7:43:bd:5f:0f:79:ea:65:c3:2d:4c:61:
                    21:52:4a:7f:a0:c5:c7:b0:00:5a:bb:40:1a:a0:1e:
                    1f:73:51:1c:bb:69:71:78:25:b3:a2:5b:35:6b:a2:
                    c6:48:af:50:f4:0f:b4:76:0a:77:d6:37:2a:c0:2d:
                    58:ac:32:1b:d5:28:32:18:76:ab:8b:8a:ab:75:b8:
                    18:a8:91:77:49:7e:cb:f5:22:33:b8:52:20:00:0f:
                    40:06:f4:af:bf:31:a3:82:79:a8:b6:56:5f:17:1d:
                    28:7d:7a:d0:eb:3b:e0:d8:9a:6f:4a:88:92:52:8c:
                    df:c6:94:d4:a9:d2:3c:09:60:50:49:51:01:d4:c6:
                    c4:6b:90:64:8c:7a:c4:3d:48:c9:05:4c:1f:b0:a8:
                    f8:98:f0:00:de:a6:d0:8a:e2:b6:21:6a:30:af:c4:
                    d5:b6:ba:30:e3:24:ba:7b:44:c7:8a:6c:c2:29:f9:
                    9e:f2:67:99:16:c5:ef:f3:7d:bc:04:a1:0c:78:1d:
                    7b:95:7d:3a:22:f7:9f:d6:c0:4c:53:d6:72:06:c5:
                    6a:3b:a4:c9:0e:7b:b1:ad:a8:46:86:7b:bd:88:e0:
                    ee:ff:ea:cc:45:b0:c5:85:4d:a2:a6:fd:10:ef:b4:
                    6f:c8:53
                Exponent: 65537 (0x10001)
        X509v3 extensions:
            X509v3 Basic Constraints: 
                CA:FALSE
            Netscape Comment: 
                OpenSSL Generated Certificate
            X509v3 Subject Key Identifier: 
                4B:78:6D:25:E1:E7:AD:89:7A:37:F4:4E:42:FA:A2:48:5D:01:BF:70
            X509v3 Authority Key Identifier: 
                DirName:/C=CA/ST=California/O=Pivotal Software Inc./CN=hostname.pivotal.io
                serial:01

    Signature Algorithm: sha256WithRSAEncryption
         1e:55:e8:90:ce:ac:21:b2:ec:8d:de:04:b2:33:a0:d4:c6:c0:
         5c:ac:b2:c5:55:e3:a5:6f:83:10:b1:50:c6:6d:40:0f:0c:2e:
         29:2a:37:3d:0f:fa:50:3d:6f:84:73:99:67:41:e1:5f:c5:da:
         2b:21:f1:9e:bc:fa:9c:dd:93:02:26:61:b6:b9:66:2f:dd:7c:
         cd:4a:34:4e:ba:ab:da:24:c0:c2:e1:71:32:1b:1f:cd:3b:26:
         93:51:26:de:a8:d2:d6:2e:6a:a1:3e:74:61:c0:cc:17:3b:f2:
         f2:ef:b8:0e:87:e4:10:ef:23:19:ee:9c:17:e4:da:57:52:38:
         6a:e8:66:26:e4:0a:e7:dc:9a:d1:8f:9b:69:a9:dd:08:3c:52:
         31:d0:ad:3a:9b:29:8b:f1:1a:25:44:0a:7d:cf:c5:9a:00:f1:
         82:02:22:86:08:42:7c:ce:57:2c:4d:41:ef:14:9a:98:2e:3f:
         c1:9a:7a:5e:20:f9:4b:58:d9:c6:1c:d3:34:33:8c:db:6a:0f:
         ad:3b:df:22:69:c3:e6:2d:bd:4f:93:76:45:b8:13:e1:7a:8e:
         fa:69:3f:05:be:30:f8:21:df:fb:f0:1f:76:7e:f5:c7:dd:0a:
         80:6d:d8:30:f8:74:b2:84:5c:1f:51:9b:e0:c4:86:c0:4c:13:
         12:3f:e3:5d:2d:22:5b:38:3b:62:c9:98:e7:78:69:65:ac:b0:
         e3:a6:6b:22:86:df:31:d2:48:c3:6f:d5:bd:0f:22:5c:c6:69:
         47:85:d8:fd:89:5d:22:7b:66:ba:36:de:18:86:3a:6b:49:0a:
         8a:a9:aa:ce:2b:a7:88:95:89:cd:98:6c:74:81:f3:59:f8:86:
         60:d6:f4:13:0d:52:17:30:17:e6:d2:fe:68:75:64:ab:79:66:
         60:b7:89:29:9c:32:9f:c0:7a:48:44:1a:ca:2a:cc:9e:5b:69:
         b2:66:82:7a:d9:a8:af:0a:91:e5:5e:5d:9c:7c:43:54:03:c8:
         ff:e7:4c:03:52:34:95:a2:50:64:4a:b4:3e:74:63:92:f2:1a:
         0c:2b:d3:31:e0:d5:68:c2:ec:03:59:2f:8c:98:67:64:34:fc:
         86:92:b7:c4:b6:72:c2:9a:6a:18:48:db:8d:b7:ab:34:b5:a9:
         c4:e3:b3:62:26:f1:da:61:16:26:12:86:0d:69:48:93:5b:76:
         f3:9a:04:31:2e:65:b9:c7:e6:71:33:d4:0d:4f:e4:8b:c0:af:
         bb:ad:7c:1a:7c:cd:06:c2:b7:aa:b9:ae:53:78:50:b1:9f:a6:
         d7:2b:73:e2:3b:43:10:03:63:83:7b:49:ba:1a:30:7d:9a:d3:
         37:6c:5e:0d:90:68:13:a3
-----BEGIN CERTIFICATE-----
MIIGGDCCBACgAwIBAgICEAIwDQYJKoZIhvcNAQELBQAwYDELMAkGA1UEBhMCQ0Ex
EzARBgNVBAgMCkNhbGlmb3JuaWExHjAcBgNVBAoMFVBpdm90YWwgU29mdHdhcmUg
SW5jLjEcMBoGA1UEAwwTaG9zdG5hbWUucGl2b3RhbC5pbzAeFw0xNzExMDcyMzE5
MTFaFw0yOTExMDgyMzE5MTFaMGwxCzAJBgNVBAYTAkNBMRMwEQYDVQQIDApDYWxp
Zm9ybmlhMR4wHAYDVQQKDBVQaXZvdGFsIFNvZnR3YXJlIEluYy4xKDAmBgNVBAMM
H1Bpdm90YWwgQ2xhc3MgNCBJbnRlcm1lZGlhdGUgQ0EwggIiMA0GCSqGSIb3DQEB
AQUAA4ICDwAwggIKAoICAQDaQFiUSAhMZjpalAW6kPpyTXbTaDzJnwJI847iu1VD
wB+1ezMpIk3rm5L4QY9Qqx9v4V72m/qSS2QYuzyw+hrJjgcsrQDoNiYAMsDiqkI2
8hgcZvE8Rbs4vF6mYJwf0WFX0TbirSkuDatNxCI6remGITEtyN9lwVDgKZZ4Cnh3
NDCNEIBihKUm7U9CzcvDABeCYxR9R6Nf6GE8eu3CNSCVdDUCfh02Y5f2o5DmwTYU
hXhmgMSFS3BxJGBCbsgL0w3GoTs6vkol5RhfQy9R1b9sYqzN+XPpHy4aM4OlKGtW
lQMxr6g721NWA+1Q/iFa9FepV9wYpJ1GscPhRDkk1HTYYjdclJx9yh56jeM49Vfe
R9dDvV8Peeplwy1MYSFSSn+gxcewAFq7QBqgHh9zURy7aXF4JbOiWzVrosZIr1D0
D7R2CnfWNyrALVisMhvVKDIYdquLiqt1uBiokXdJfsv1IjO4UiAAD0AG9K+/MaOC
eai2Vl8XHSh9etDrO+DYmm9KiJJSjN/GlNSp0jwJYFBJUQHUxsRrkGSMesQ9SMkF
TB+wqPiY8ADeptCK4rYhajCvxNW2ujDjJLp7RMeKbMIp+Z7yZ5kWxe/zfbwEoQx4
HXuVfToi95/WwExT1nIGxWo7pMkOe7GtqEaGe72I4O7/6sxFsMWFTaKm/RDvtG/I
UwIDAQABo4HPMIHMMAkGA1UdEwQCMAAwLAYJYIZIAYb4QgENBB8WHU9wZW5TU0wg
R2VuZXJhdGVkIENlcnRpZmljYXRlMB0GA1UdDgQWBBRLeG0l4eetiXo39E5C+qJI
XQG/cDByBgNVHSMEazBpoWSkYjBgMQswCQYDVQQGEwJDQTETMBEGA1UECAwKQ2Fs
aWZvcm5pYTEeMBwGA1UECgwVUGl2b3RhbCBTb2Z0d2FyZSBJbmMuMRwwGgYDVQQD
DBNob3N0bmFtZS5waXZvdGFsLmlvggEBMA0GCSqGSIb3DQEBCwUAA4ICAQAeVeiQ
zqwhsuyN3gSyM6DUxsBcrLLFVeOlb4MQsVDGbUAPDC4pKjc9D/pQPW+Ec5lnQeFf
xdorIfGevPqc3ZMCJmG2uWYv3XzNSjROuqvaJMDC4XEyGx/NOyaTUSbeqNLWLmqh
PnRhwMwXO/Ly77gOh+QQ7yMZ7pwX5NpXUjhq6GYm5Arn3JrRj5tpqd0IPFIx0K06
mymL8RolRAp9z8WaAPGCAiKGCEJ8zlcsTUHvFJqYLj/BmnpeIPlLWNnGHNM0M4zb
ag+tO98iacPmLb1Pk3ZFuBPheo76aT8FvjD4Id/78B92fvXH3QqAbdgw+HSyhFwf
UZvgxIbATBMSP+NdLSJbODtiyZjneGllrLDjpmsiht8x0kjDb9W9DyJcxmlHhdj9
iV0ie2a6Nt4YhjprSQqKqarOK6eIlYnNmGx0gfNZ+IZg1vQTDVIXMBfm0v5odWSr
eWZgt4kpnDKfwHpIRBrKKsyeW2myZoJ62aivCpHlXl2cfENUA8j/50wDUjSVolBk
SrQ+dGOS8hoMK9Mx4NVowuwDWS+MmGdkNPyGkrfEtnLCmmoYSNuNt6s0tanE47Ni
JvHaYRYmEoYNaUiTW3bzmgQxLmW5x+ZxM9QNT+SLwK+7rXwafM0Gwrequa5TeFCx
n6bXK3PiO0MQA2ODe0m6GjB9mtM3bF4NkGgTow==
-----END CERTIFICATE-----
