Certificate:
    Data:
        Version: 3 (0x2)
        Serial Number: 4099 (0x1003)
    Signature Algorithm: sha256WithRSAEncryption
        Issuer: C=CA, ST=California, O=Pivotal Software Inc., CN=Pivotal Class 1 Root CA
        Validity
            Not Before: Nov  7 23:22:45 2017 GMT
            Not After : Nov  8 23:22:45 2029 GMT
        Subject: C=CA, ST=California, O=Pivotal Software Inc., CN=Pivotal Class 5 Intermediate CA
        Subject Public Key Info:
            Public Key Algorithm: rsaEncryption
                Public-Key: (4096 bit)
                Modulus:
                    00:d9:8d:41:bc:a0:1a:9b:d1:45:2f:4d:da:2f:3c:
                    3a:d4:67:73:a9:fb:de:ef:f6:15:70:5f:46:1d:ee:
                    59:4b:60:10:43:48:f0:af:43:ea:ac:27:f3:32:de:
                    60:ae:af:8d:1e:4d:f1:04:87:d0:23:21:47:ef:f9:
                    c8:c3:b8:e2:e5:f1:a4:ee:03:da:1c:cd:7c:94:a9:
                    ab:14:90:45:20:dc:fa:1c:97:14:82:39:5f:38:e9:
                    12:80:bc:4e:42:5e:31:b8:cb:21:ab:91:fa:6c:0c:
                    3b:91:2a:c5:b6:db:5e:00:a6:f6:05:8a:70:f8:c5:
                    f9:c7:9d:e6:f7:3a:ca:46:47:33:91:77:ad:58:c5:
                    07:ba:f6:0a:f8:4b:2b:d6:96:b4:f5:b5:7f:1a:e1:
                    47:a7:dd:28:a2:9f:d2:86:be:9e:fc:b3:3d:41:3a:
                    c3:6d:63:50:d3:b7:95:84:02:ad:6b:45:87:d1:14:
                    35:16:15:48:61:2f:a4:ab:44:8d:24:15:18:b8:24:
                    81:81:db:72:a0:55:2d:84:ad:a4:2f:2a:7c:14:f2:
                    fc:76:f1:aa:23:e0:3d:07:90:24:9b:9b:06:13:da:
                    d4:df:da:d7:2d:88:be:03:15:7d:de:e4:20:f4:ac:
                    25:72:92:42:54:32:83:75:64:fb:5d:09:e9:3f:c3:
                    a3:ab:05:0a:85:b5:0c:be:0d:7f:1d:51:a1:3e:33:
                    e1:39:db:35:05:d0:eb:ae:a6:5f:89:f7:4b:00:15:
                    99:fa:24:b5:34:15:5b:81:bc:e9:d1:68:17:00:62:
                    7c:db:b4:0f:03:b8:09:c4:a8:47:20:5e:db:bd:9f:
                    b8:e2:90:8c:a2:0a:fe:c7:09:90:1c:9f:87:10:3c:
                    2e:98:8b:3b:0d:74:39:77:36:dd:27:20:d1:6b:a2:
                    68:af:1e:9a:1c:10:cf:a2:a7:c4:ab:a9:a5:36:db:
                    3e:36:f3:1b:03:fc:62:a7:b6:79:26:05:53:59:82:
                    7d:bf:fa:a0:6e:03:2f:30:96:44:c3:c6:79:e1:18:
                    e9:cd:f8:16:26:98:8f:a1:67:2b:5e:9d:94:03:7b:
                    6b:1c:c9:65:bf:9e:03:2e:4f:b3:b4:43:73:26:78:
                    53:04:34:86:25:ac:5b:e5:e8:ff:04:f1:0a:06:6c:
                    cb:67:59:31:47:f6:5e:7c:0d:79:d8:44:28:67:9e:
                    d1:cc:f3:18:3b:70:91:3e:df:07:87:44:44:74:72:
                    f3:91:2c:a7:a7:f0:e8:9b:a7:14:32:52:0e:11:70:
                    1f:19:fd:3b:ab:9a:d2:82:fe:5d:b8:04:5a:16:f5:
                    07:29:03:6c:91:29:67:35:a7:fe:b2:6b:76:31:cf:
                    65:0d:3b
                Exponent: 65537 (0x10001)
        X509v3 extensions:
            X509v3 Basic Constraints: 
                CA:FALSE
            Netscape Comment: 
                OpenSSL Generated Certificate
            X509v3 Subject Key Identifier: 
                87:57:48:2F:82:55:43:FD:58:50:6B:CD:3D:F6:C0:4B:43:35:69:D0
            X509v3 Authority Key Identifier: 
                DirName:/C=CA/ST=California/O=Pivotal Software Inc./CN=Pivotal Class 1 Root CA
                serial:01

    Signature Algorithm: sha256WithRSAEncryption
         7e:77:42:5d:ee:13:63:4b:54:18:b5:8c:c2:00:c6:20:c7:e7:
         ce:a4:bb:dc:c6:40:ed:bd:28:f6:19:6b:99:92:2a:b4:cd:f9:
         8b:47:c5:c5:0f:89:bf:38:d6:da:c2:52:db:6d:85:fe:24:56:
         23:c4:8d:03:e8:a5:e4:9f:90:09:d1:c3:73:b7:29:76:4f:99:
         79:60:98:b1:47:fe:00:a5:58:20:a2:cb:58:dc:4e:92:4a:9c:
         6a:62:39:7d:6d:11:d1:90:9e:23:02:ac:83:96:af:db:ef:72:
         31:4f:86:14:f6:63:a5:b5:36:a3:19:36:3e:7d:09:d4:f3:8a:
         8d:15:3f:b0:e6:a4:10:1b:1e:ff:93:dd:22:08:f1:b4:aa:b5:
         20:85:4e:4e:72:82:a4:2f:79:bc:a6:bc:cb:35:1b:b0:03:1d:
         0c:02:b4:86:4e:b1:71:b4:f5:8d:fe:ca:38:f7:da:78:b3:8f:
         c9:07:f7:8e:f5:1c:e0:a2:ab:df:c7:92:c3:61:08:04:a9:1e:
         67:9d:22:a8:1c:06:29:08:a8:94:ad:5f:d7:b9:63:a6:e0:e4:
         28:85:cb:2c:f7:4d:a8:3b:fd:80:06:e7:6a:e6:26:55:9f:a1:
         ad:c5:09:11:66:cb:83:e5:5e:d2:2d:a7:10:f2:dd:42:43:97:
         b6:17:20:0e:09:d8:58:c7:bb:4b:ae:29:ba:7b:5d:d7:37:03:
         74:15:b9:7d:00:aa:7f:51:c9:bf:ff:5e:82:ce:fb:f4:62:a9:
         1b:42:07:33:c1:d7:9e:d6:ea:00:7e:1b:70:d3:63:4b:55:41:
         fd:2b:65:ec:57:6f:ef:cf:aa:e8:c1:04:dd:fd:93:8e:cc:55:
         e2:de:8c:62:0e:0c:96:74:8a:53:26:ef:95:74:f3:59:43:f7:
         c9:df:da:64:6a:b2:7c:dd:e0:c7:d5:9d:17:3b:2b:ce:03:2d:
         6c:ab:a1:7b:5c:7d:96:9e:50:fb:a8:94:c0:d2:99:02:c4:6f:
         37:9b:66:39:26:6d:7e:f3:53:ce:05:49:71:17:b0:f5:4f:ef:
         03:8a:f3:c4:20:a5:c9:f1:83:cf:45:3e:74:84:9b:9b:55:32:
         28:78:1c:91:ae:1f:b9:df:c2:dd:68:8c:2a:1c:d0:b7:1d:e8:
         50:df:ff:13:eb:94:39:55:29:ad:2e:c2:83:fc:21:c0:fe:90:
         f8:4c:5f:88:8e:85:23:5d:a7:07:bb:7d:2c:02:60:f2:6c:8f:
         40:c7:41:4b:d2:aa:74:0c:27:8e:ef:93:92:2e:32:1f:0d:5e:
         02:22:d7:c0:ed:19:e3:06:77:6c:6a:04:ad:49:ae:c4:97:5e:
         a8:98:ea:fb:98:94:df:79
-----BEGIN CERTIFICATE-----
MIIGIDCCBAigAwIBAgICEAMwDQYJKoZIhvcNAQELBQAwZDELMAkGA1UEBhMCQ0Ex
EzARBgNVBAgMCkNhbGlmb3JuaWExHjAcBgNVBAoMFVBpdm90YWwgU29mdHdhcmUg
SW5jLjEgMB4GA1UEAwwXUGl2b3RhbCBDbGFzcyAxIFJvb3QgQ0EwHhcNMTcxMTA3
MjMyMjQ1WhcNMjkxMTA4MjMyMjQ1WjBsMQswCQYDVQQGEwJDQTETMBEGA1UECAwK
Q2FsaWZvcm5pYTEeMBwGA1UECgwVUGl2b3RhbCBTb2Z0d2FyZSBJbmMuMSgwJgYD
VQQDDB9QaXZvdGFsIENsYXNzIDUgSW50ZXJtZWRpYXRlIENBMIICIjANBgkqhkiG
9w0BAQEFAAOCAg8AMIICCgKCAgEA2Y1BvKAam9FFL03aLzw61Gdzqfve7/YVcF9G
He5ZS2AQQ0jwr0PqrCfzMt5grq+NHk3xBIfQIyFH7/nIw7ji5fGk7gPaHM18lKmr
FJBFINz6HJcUgjlfOOkSgLxOQl4xuMshq5H6bAw7kSrFttteAKb2BYpw+MX5x53m
9zrKRkczkXetWMUHuvYK+Esr1pa09bV/GuFHp90oop/Shr6e/LM9QTrDbWNQ07eV
hAKta0WH0RQ1FhVIYS+kq0SNJBUYuCSBgdtyoFUthK2kLyp8FPL8dvGqI+A9B5Ak
m5sGE9rU39rXLYi+AxV93uQg9KwlcpJCVDKDdWT7XQnpP8OjqwUKhbUMvg1/HVGh
PjPhOds1BdDrrqZfifdLABWZ+iS1NBVbgbzp0WgXAGJ827QPA7gJxKhHIF7bvZ+4
4pCMogr+xwmQHJ+HEDwumIs7DXQ5dzbdJyDRa6Jorx6aHBDPoqfEq6mlNts+NvMb
A/xip7Z5JgVTWYJ9v/qgbgMvMJZEw8Z54RjpzfgWJpiPoWcrXp2UA3trHMllv54D
Lk+ztENzJnhTBDSGJaxb5ej/BPEKBmzLZ1kxR/ZefA152EQoZ57RzPMYO3CRPt8H
h0REdHLzkSynp/Dom6cUMlIOEXAfGf07q5rSgv5duARaFvUHKQNskSlnNaf+smt2
Mc9lDTsCAwEAAaOB0zCB0DAJBgNVHRMEAjAAMCwGCWCGSAGG+EIBDQQfFh1PcGVu
U1NMIEdlbmVyYXRlZCBDZXJ0aWZpY2F0ZTAdBgNVHQ4EFgQUh1dIL4JVQ/1YUGvN
PfbAS0M1adAwdgYDVR0jBG8wbaFopGYwZDELMAkGA1UEBhMCQ0ExEzARBgNVBAgM
CkNhbGlmb3JuaWExHjAcBgNVBAoMFVBpdm90YWwgU29mdHdhcmUgSW5jLjEgMB4G
A1UEAwwXUGl2b3RhbCBDbGFzcyAxIFJvb3QgQ0GCAQEwDQYJKoZIhvcNAQELBQAD
ggIBAH53Ql3uE2NLVBi1jMIAxiDH586ku9zGQO29KPYZa5mSKrTN+YtHxcUPib84
1trCUttthf4kViPEjQPopeSfkAnRw3O3KXZPmXlgmLFH/gClWCCiy1jcTpJKnGpi
OX1tEdGQniMCrIOWr9vvcjFPhhT2Y6W1NqMZNj59CdTzio0VP7DmpBAbHv+T3SII
8bSqtSCFTk5ygqQvebymvMs1G7ADHQwCtIZOsXG09Y3+yjj32nizj8kH9471HOCi
q9/HksNhCASpHmedIqgcBikIqJStX9e5Y6bg5CiFyyz3Tag7/YAG52rmJlWfoa3F
CRFmy4PlXtItpxDy3UJDl7YXIA4J2FjHu0uuKbp7Xdc3A3QVuX0Aqn9Ryb//XoLO
+/RiqRtCBzPB157W6gB+G3DTY0tVQf0rZexXb+/PqujBBN39k47MVeLejGIODJZ0
ilMm75V081lD98nf2mRqsnzd4MfVnRc7K84DLWyroXtcfZaeUPuolMDSmQLEbzeb
ZjkmbX7zU84FSXEXsPVP7wOK88Qgpcnxg89FPnSEm5tVMih4HJGuH7nfwt1ojCoc
0Lcd6FDf/xPrlDlVKa0uwoP8IcD+kPhMX4iOhSNdpwe7fSwCYPJsj0DHQUvSqnQM
J47vk5IuMh8NXgIi18DtGeMGd2xqBK1JrsSXXqiY6vuYlN95
-----END CERTIFICATE-----
